; Function Attrs: nounwind uwtable
define ptr @l_Std_Barrier_wait(ptr noundef %0, ptr noundef %1) local_unnamed_addr #0 {
  %3 = getelementptr inbounds nuw i8, ptr %0, i64 8
  %4 = load ptr, ptr %3, align 8, !tbaa !4
  %5 = ptrtoint ptr %4 to i64
  %6 = and i64 %5, 1
  %.not = icmp eq i64 %6, 0
  br i1 %.not, label %7, label %lean_inc.exit

7:                                                ; preds = %2
  %.val.i = load i32, ptr %4, align 4, !tbaa !8
  %8 = icmp sgt i32 %.val.i, 0
  br i1 %8, label %9, label %11, !prof !11

9:                                                ; preds = %7
  %10 = add nuw i32 %.val.i, 1
  store i32 %10, ptr %4, align 4, !tbaa !8
  br label %13

11:                                               ; preds = %7
  %.not.i = icmp eq i32 %.val.i, 0
  br i1 %.not.i, label %lean_inc.exit, label %12

12:                                               ; preds = %11
  tail call void @lean_inc_ref_cold(ptr noundef nonnull %4) #4
  %.val.i16.pr = load i32, ptr %4, align 4, !tbaa !8
  br label %13

13:                                               ; preds = %12, %9
  %.val.i16 = phi i32 [ %.val.i16.pr, %12 ], [ %10, %9 ]
  %14 = icmp sgt i32 %.val.i16, 0
  br i1 %14, label %15, label %17, !prof !14

15:                                               ; preds = %13
  %16 = add nuw i32 %.val.i16, 1
  store i32 %16, ptr %4, align 4, !tbaa !8
  br label %lean_inc.exit

17:                                               ; preds = %13
  %.not.i17 = icmp eq i32 %.val.i16, 0
  br i1 %.not.i17, label %lean_inc.exit, label %18

18:                                               ; preds = %17
  tail call void @lean_inc_ref_cold(ptr noundef nonnull %4) #4
  br label %lean_inc.exit

lean_inc.exit:                                    ; preds = %11, %18, %17, %15, %2
  tail call void @lean_inc_heartbeat() #4
  %19 = tail call noalias ptr @mi_malloc_small(i64 noundef 40) #4
  %20 = icmp eq ptr %19, null
  br i1 %20, label %21, label %lean_alloc_closure.exit

21:                                               ; preds = %lean_inc.exit
  tail call void @lean_internal_panic_out_of_memory() #5
  unreachable

lean_alloc_closure.exit:                          ; preds = %lean_inc.exit
  %22 = getelementptr inbounds nuw i8, ptr %19, i64 4
  store i32 1, ptr %19, align 4, !tbaa !8
  store i32 -184549336, ptr %22, align 4
  %23 = getelementptr inbounds nuw i8, ptr %19, i64 8
  store ptr @l_Std_Barrier_wait___lambda__2___boxed, ptr %23, align 8, !tbaa !4
  %24 = getelementptr inbounds nuw i8, ptr %19, i64 16
  store i16 5, ptr %24, align 8, !tbaa !12
  %25 = getelementptr inbounds nuw i8, ptr %19, i64 18
  store i16 2, ptr %25, align 2, !tbaa !12
  %26 = getelementptr inbounds nuw i8, ptr %19, i64 24
  store ptr %0, ptr %26, align 8, !tbaa !4
  %27 = getelementptr inbounds nuw i8, ptr %19, i64 32
  store ptr %4, ptr %27, align 8, !tbaa !4
  %28 = load ptr, ptr @l_Std_Barrier_wait___lambda__2___closed__1, align 8, !tbaa !4
  tail call void @lean_inc_heartbeat() #4
  %29 = tail call noalias ptr @mi_malloc_small(i64 noundef 40) #4
  %30 = icmp eq ptr %29, null
  br i1 %30, label %31, label %lean_alloc_closure.exit19

31:                                               ; preds = %lean_alloc_closure.exit
  tail call void @lean_internal_panic_out_of_memory() #5
  unreachable

lean_alloc_closure.exit19:                        ; preds = %lean_alloc_closure.exit
  %32 = getelementptr inbounds nuw i8, ptr %29, i64 4
  store i32 1, ptr %29, align 4, !tbaa !8
  store i32 -184549336, ptr %32, align 4
  %33 = getelementptr inbounds nuw i8, ptr %29, i64 8
  store ptr @l_ReaderT_bind___at_Std_Barrier_wait___spec__2___rarg, ptr %33, align 8, !tbaa !4
  %34 = getelementptr inbounds nuw i8, ptr %29, i64 16
  store i16 4, ptr %34, align 8, !tbaa !12
  %35 = getelementptr inbounds nuw i8, ptr %29, i64 18
  store i16 2, ptr %35, align 2, !tbaa !12
  %36 = getelementptr inbounds nuw i8, ptr %29, i64 24
  store ptr %28, ptr %36, align 8, !tbaa !4
  %37 = getelementptr inbounds nuw i8, ptr %29, i64 32
  store ptr %19, ptr %37, align 8, !tbaa !4
  %38 = tail call ptr @l_Std_Mutex_atomically___at_Std_Barrier_wait___spec__5(ptr noundef %4, ptr noundef nonnull %29, ptr noundef %1)
  ret ptr %38
}